target datalayout = "e-m:e-p270:32:32-p271:32:32-p272:64:64-i64:64-i128:128-f80:128-n8:16:32:64-S128"
target triple = "x86_64-pc-linux-gnu"

%struct._packet_info = type { ptr, ptr, i32, i32, %struct.nstime_t, %struct.nstime_t, %struct.nstime_t, i8, ptr, ptr, ptr, ptr, %struct._address, %struct._address, %struct._address, %struct._address, %struct._address, %struct._address, i32, ptr, i8, [3 x i8], %struct.anon, i32, i32, i32, i32, ptr, i8, ptr, ptr, i16, i16, i32, i32, i16, i32, i32, ptr, ptr, ptr, i8, i8, i16, i16, i16, i32, i16, i16, ptr, ptr, ptr, ptr, ptr, i32, i32 }
%struct.nstime_t = type { i64, i32 }
%struct._address = type { i32, i32, ptr, ptr }
%struct.anon = type { i8, [3 x i8] }

@hf_pn_ptcp_header = internal global i32 0, align 4
@hf_pn_ptcp_res1 = internal global i32 0, align 4
@hf_pn_ptcp_res2 = internal global i32 0, align 4
@hf_pn_ptcp_delay10ns = internal global i32 0, align 4
@hf_pn_ptcp_seq_id = internal global i32 0, align 4
@hf_pn_ptcp_delay1ns_byte = internal global i32 0, align 4
@hf_pn_ptcp_delay1ns = internal global i32 0, align 4
@ett_pn_ptcp_header = internal global i32 0, align 4
@.str.133 = private unnamed_addr constant [27 x i8] c"%s, Seq=%3u, Delay=%11luns\00", align 1
@.str.134 = private unnamed_addr constant [29 x i8] c"%s: Sequence=%u, Delay=%luns\00", align 1
@.str.135 = private unnamed_addr constant [27 x i8] c": Sequence=%u, Delay=%luns\00", align 1
@.str.136 = private unnamed_addr constant [25 x i8] c" (%u.%03u,%03u,%03u sec)\00", align 1

; Function Attrs: null_pointer_is_valid sspstrong uwtable
define internal i32 @dissect_PNPTCP_RTSyncPDU(ptr noundef %0, i32 noundef %1, ptr noundef %2, ptr noundef %3, ptr noundef %4, i16 noundef zeroext %5, ptr noundef %6, ptr noundef %7) #0 {
  %9 = alloca ptr, align 8
  %10 = alloca i32, align 4
  %11 = alloca ptr, align 8
  %12 = alloca ptr, align 8
  %13 = alloca ptr, align 8
  %14 = alloca i16, align 2
  %15 = alloca ptr, align 8
  %16 = alloca ptr, align 8
  %17 = alloca ptr, align 8
  %18 = alloca ptr, align 8
  %19 = alloca i32, align 4
  %20 = alloca i16, align 2
  %21 = alloca i8, align 1
  %22 = alloca i64, align 8
  %23 = alloca i32, align 4
  %24 = alloca i32, align 4
  store ptr %0, ptr %9, align 8
  store i32 %1, ptr %10, align 4
  store ptr %2, ptr %11, align 8
  store ptr %3, ptr %12, align 8
  store ptr %4, ptr %13, align 8
  store i16 %5, ptr %14, align 2
  store ptr %6, ptr %15, align 8
  store ptr %7, ptr %16, align 8
  call void @llvm.lifetime.start.p0(i64 8, ptr %17) #3
  call void @llvm.lifetime.start.p0(i64 8, ptr %18) #3
  call void @llvm.lifetime.start.p0(i64 4, ptr %19) #3
  call void @llvm.lifetime.start.p0(i64 2, ptr %20) #3
  call void @llvm.lifetime.start.p0(i64 1, ptr %21) #3
  call void @llvm.lifetime.start.p0(i64 8, ptr %22) #3
  call void @llvm.lifetime.start.p0(i64 4, ptr %23) #3
  call void @llvm.lifetime.start.p0(i64 4, ptr %24) #3
  %25 = load ptr, ptr %12, align 8
  %26 = load i32, ptr @hf_pn_ptcp_header, align 4
  %27 = load ptr, ptr %9, align 8
  %28 = load i32, ptr %10, align 4
  %29 = call ptr @proto_tree_add_item(ptr noundef %25, i32 noundef %26, ptr noundef %27, i32 noundef %28, i32 noundef 20, i32 noundef 0)
  store ptr %29, ptr %17, align 8
  %30 = load ptr, ptr %17, align 8
  %31 = load i32, ptr @ett_pn_ptcp_header, align 4
  %32 = call ptr @proto_item_add_subtree(ptr noundef %30, i32 noundef %31)
  store ptr %32, ptr %18, align 8
  %33 = load ptr, ptr %12, align 8
  %34 = load i32, ptr @hf_pn_ptcp_res1, align 4
  %35 = load ptr, ptr %9, align 8
  %36 = load i32, ptr %10, align 4
  %37 = call ptr @proto_tree_add_item(ptr noundef %33, i32 noundef %34, ptr noundef %35, i32 noundef %36, i32 noundef 4, i32 noundef 0)
  %38 = load i32, ptr %10, align 4
  %39 = add i32 %38, 4
  store i32 %39, ptr %10, align 4
  %40 = load ptr, ptr %12, align 8
  %41 = load i32, ptr @hf_pn_ptcp_res2, align 4
  %42 = load ptr, ptr %9, align 8
  %43 = load i32, ptr %10, align 4
  %44 = call ptr @proto_tree_add_item(ptr noundef %40, i32 noundef %41, ptr noundef %42, i32 noundef %43, i32 noundef 4, i32 noundef 0)
  %45 = load i32, ptr %10, align 4
  %46 = add i32 %45, 4
  store i32 %46, ptr %10, align 4
  %47 = load ptr, ptr %12, align 8
  %48 = load i32, ptr @hf_pn_ptcp_delay10ns, align 4
  %49 = load ptr, ptr %9, align 8
  %50 = load i32, ptr %10, align 4
  %51 = call ptr @proto_tree_add_item_ret_uint(ptr noundef %47, i32 noundef %48, ptr noundef %49, i32 noundef %50, i32 noundef 4, i32 noundef 0, ptr noundef %19)
  %52 = load i32, ptr %10, align 4
  %53 = add i32 %52, 4
  store i32 %53, ptr %10, align 4
  %54 = load ptr, ptr %9, align 8
  %55 = load i32, ptr %10, align 4
  %56 = load ptr, ptr %11, align 8
  %57 = load ptr, ptr %18, align 8
  %58 = load i32, ptr @hf_pn_ptcp_seq_id, align 4
  %59 = call i32 @dissect_pn_uint16(ptr noundef %54, i32 noundef %55, ptr noundef %56, ptr noundef %57, i32 noundef %58, ptr noundef %20)
  store i32 %59, ptr %10, align 4
  %60 = load ptr, ptr %9, align 8
  %61 = load i32, ptr %10, align 4
  %62 = load ptr, ptr %11, align 8
  %63 = load ptr, ptr %18, align 8
  %64 = load i32, ptr @hf_pn_ptcp_delay1ns_byte, align 4
  %65 = call i32 @dissect_pn_uint8(ptr noundef %60, i32 noundef %61, ptr noundef %62, ptr noundef %63, i32 noundef %64, ptr noundef %21)
  store i32 %65, ptr %10, align 4
  %66 = load ptr, ptr %9, align 8
  %67 = load i32, ptr %10, align 4
  %68 = load ptr, ptr %11, align 8
  %69 = load ptr, ptr %18, align 8
  %70 = call i32 @dissect_pn_align4(ptr noundef %66, i32 noundef %67, ptr noundef %68, ptr noundef %69)
  store i32 %70, ptr %10, align 4
  %71 = load ptr, ptr %12, align 8
  %72 = load i32, ptr @hf_pn_ptcp_delay1ns, align 4
  %73 = load ptr, ptr %9, align 8
  %74 = load i32, ptr %10, align 4
  %75 = call ptr @proto_tree_add_item_ret_uint(ptr noundef %71, i32 noundef %72, ptr noundef %73, i32 noundef %74, i32 noundef 4, i32 noundef 0, ptr noundef %23)
  %76 = load i32, ptr %10, align 4
  %77 = add i32 %76, 4
  store i32 %77, ptr %10, align 4
  %78 = load ptr, ptr %9, align 8
  %79 = load i32, ptr %10, align 4
  %80 = load ptr, ptr %11, align 8
  %81 = load ptr, ptr %12, align 8
  %82 = call i32 @dissect_pn_align4(ptr noundef %78, i32 noundef %79, ptr noundef %80, ptr noundef %81)
  store i32 %82, ptr %10, align 4
  %83 = load i32, ptr %19, align 4
  %84 = zext i32 %83 to i64
  %85 = mul i64 %84, 10
  %86 = load i8, ptr %21, align 1
  %87 = zext i8 %86 to i64
  %88 = add i64 %85, %87
  %89 = load i32, ptr %23, align 4
  %90 = zext i32 %89 to i64
  %91 = add i64 %88, %90
  store i64 %91, ptr %22, align 8
  %92 = load i64, ptr %22, align 8
  %93 = udiv i64 %92, 1000000
  %94 = trunc i64 %93 to i32
  store i32 %94, ptr %24, align 4
  %95 = load ptr, ptr %11, align 8
  %96 = getelementptr inbounds nuw %struct._packet_info, ptr %95, i32 0, i32 1
  %97 = load ptr, ptr %96, align 8
  %98 = load ptr, ptr %15, align 8
  %99 = load i16, ptr %20, align 2
  %100 = zext i16 %99 to i32
  %101 = load i64, ptr %22, align 8
  call void (ptr, i32, ptr, ...) @col_append_fstr(ptr noundef %97, i32 noundef 25, ptr noundef @.str.133, ptr noundef %98, i32 noundef %100, i64 noundef %101)
  %102 = load ptr, ptr %13, align 8
  %103 = load ptr, ptr %16, align 8
  %104 = load i16, ptr %20, align 2
  %105 = zext i16 %104 to i32
  %106 = load i64, ptr %22, align 8
  call void (ptr, ptr, ...) @proto_item_append_text(ptr noundef %102, ptr noundef @.str.134, ptr noundef %103, i32 noundef %105, i64 noundef %106)
  %107 = load ptr, ptr %17, align 8
  %108 = load i16, ptr %20, align 2
  %109 = zext i16 %108 to i32
  %110 = load i64, ptr %22, align 8
  call void (ptr, ptr, ...) @proto_item_append_text(ptr noundef %107, ptr noundef @.str.135, i32 noundef %109, i64 noundef %110)
  %111 = load i64, ptr %22, align 8
  %112 = icmp ne i64 %111, 0
  br i1 %112, label %113, label %128

113:                                              ; preds = %8
  %114 = load ptr, ptr %17, align 8
  %115 = load i32, ptr %24, align 4
  %116 = udiv i32 %115, 1000
  %117 = load i32, ptr %24, align 4
  %118 = urem i32 %117, 1000
  %119 = load i32, ptr %19, align 4
  %120 = urem i32 %119, 100000
  %121 = udiv i32 %120, 100
  %122 = load i32, ptr %19, align 4
  %123 = urem i32 %122, 100
  %124 = mul i32 %123, 10
  %125 = load i8, ptr %21, align 1
  %126 = zext i8 %125 to i32
  %127 = add i32 %124, %126
  call void (ptr, ptr, ...) @proto_item_append_text(ptr noundef %114, ptr noundef @.str.136, i32 noundef %116, i32 noundef %118, i32 noundef %121, i32 noundef %127)
  br label %128

128:                                              ; preds = %113, %8
  %129 = load ptr, ptr %9, align 8
  %130 = load i32, ptr %10, align 4
  %131 = load ptr, ptr %11, align 8
  %132 = load ptr, ptr %12, align 8
  %133 = load ptr, ptr %13, align 8
  %134 = load i16, ptr %14, align 2
  %135 = call i32 @dissect_PNPTCP_blocks(ptr noundef %129, i32 noundef %130, ptr noundef %131, ptr noundef %132, ptr noundef %133, i16 noundef zeroext %134)
  store i32 %135, ptr %10, align 4
  %136 = load i32, ptr %10, align 4
  call void @llvm.lifetime.end.p0(i64 4, ptr %24) #3
  call void @llvm.lifetime.end.p0(i64 4, ptr %23) #3
  call void @llvm.lifetime.end.p0(i64 8, ptr %22) #3
  call void @llvm.lifetime.end.p0(i64 1, ptr %21) #3
  call void @llvm.lifetime.end.p0(i64 2, ptr %20) #3
  call void @llvm.lifetime.end.p0(i64 4, ptr %19) #3
  call void @llvm.lifetime.end.p0(i64 8, ptr %18) #3
  call void @llvm.lifetime.end.p0(i64 8, ptr %17) #3
  ret i32 %136
}