; Function Attrs: null_pointer_is_valid sspstrong uwtable
define internal fastcc i32 @dissect_PNPTCP_RTSyncPDU(ptr noundef %0, ptr noundef %1, ptr noundef %2, ptr noundef %3, i16 noundef zeroext %4, ptr noundef %5, ptr noundef %6) unnamed_addr #0 {
  %8 = alloca i32, align 4
  %9 = alloca i16, align 2
  %10 = alloca i8, align 1
  %11 = alloca i32, align 4
  call void @llvm.lifetime.start.p0(i64 4, ptr nonnull %8) #3
  call void @llvm.lifetime.start.p0(i64 2, ptr nonnull %9) #3
  call void @llvm.lifetime.start.p0(i64 1, ptr nonnull %10) #3
  call void @llvm.lifetime.start.p0(i64 4, ptr nonnull %11) #3
  %12 = load i32, ptr @hf_pn_ptcp_header, align 4
  %13 = tail call ptr @proto_tree_add_item(ptr noundef %2, i32 noundef %12, ptr noundef %0, i32 noundef 0, i32 noundef 20, i32 noundef 0)
  %14 = load i32, ptr @ett_pn_ptcp_header, align 4
  %15 = tail call ptr @proto_item_add_subtree(ptr noundef %13, i32 noundef %14)
  %16 = load i32, ptr @hf_pn_ptcp_res1, align 4
  %17 = tail call ptr @proto_tree_add_item(ptr noundef %2, i32 noundef %16, ptr noundef %0, i32 noundef 0, i32 noundef 4, i32 noundef 0)
  %18 = load i32, ptr @hf_pn_ptcp_res2, align 4
  %19 = tail call ptr @proto_tree_add_item(ptr noundef %2, i32 noundef %18, ptr noundef %0, i32 noundef 4, i32 noundef 4, i32 noundef 0)
  %20 = load i32, ptr @hf_pn_ptcp_delay10ns, align 4
  %21 = call ptr @proto_tree_add_item_ret_uint(ptr noundef %2, i32 noundef %20, ptr noundef %0, i32 noundef 8, i32 noundef 4, i32 noundef 0, ptr noundef nonnull %8)
  %22 = load i32, ptr @hf_pn_ptcp_seq_id, align 4
  %23 = call i32 @dissect_pn_uint16(ptr noundef %0, i32 noundef 12, ptr noundef %1, ptr noundef %15, i32 noundef %22, ptr noundef nonnull %9)
  %24 = load i32, ptr @hf_pn_ptcp_delay1ns_byte, align 4
  %25 = call i32 @dissect_pn_uint8(ptr noundef %0, i32 noundef %23, ptr noundef %1, ptr noundef %15, i32 noundef %24, ptr noundef nonnull %10)
  %26 = call i32 @dissect_pn_align4(ptr noundef %0, i32 noundef %25, ptr noundef %1, ptr noundef %15)
  %27 = load i32, ptr @hf_pn_ptcp_delay1ns, align 4
  %28 = call ptr @proto_tree_add_item_ret_uint(ptr noundef %2, i32 noundef %27, ptr noundef %0, i32 noundef %26, i32 noundef 4, i32 noundef 0, ptr noundef nonnull %11)
  %29 = add i32 %26, 4
  %30 = call i32 @dissect_pn_align4(ptr noundef %0, i32 noundef %29, ptr noundef %1, ptr noundef %2)
  %31 = load i32, ptr %8, align 4
  %32 = zext i32 %31 to i64
  %33 = mul nuw nsw i64 %32, 10
  %34 = load i8, ptr %10, align 1
  %35 = zext i8 %34 to i64
  %36 = add nuw nsw i64 %33, %35
  %37 = load i32, ptr %11, align 4
  %38 = zext i32 %37 to i64
  %39 = add nuw nsw i64 %36, %38
  %40 = getelementptr inbounds nuw i8, ptr %1, i64 8
  %41 = load ptr, ptr %40, align 8
  %42 = load i16, ptr %9, align 2
  %43 = zext i16 %42 to i32
  call void (ptr, i32, ptr, ...) @col_append_fstr(ptr noundef %41, i32 noundef 25, ptr noundef nonnull @.str.133, ptr noundef %5, i32 noundef %43, i64 noundef %39)
  %44 = load i16, ptr %9, align 2
  %45 = zext i16 %44 to i32
  call void (ptr, ptr, ...) @proto_item_append_text(ptr noundef %3, ptr noundef nonnull @.str.134, ptr noundef %6, i32 noundef %45, i64 noundef %39)
  %46 = load i16, ptr %9, align 2
  %47 = zext i16 %46 to i32
  call void (ptr, ptr, ...) @proto_item_append_text(ptr noundef %13, ptr noundef nonnull @.str.135, i32 noundef %47, i64 noundef %39)
  %.not = icmp eq i64 %39, 0
  br i1 %.not, label %60, label %48

48:                                               ; preds = %7
  %49 = udiv i64 %39, 1000000
  %.lhs.trunc = trunc nuw i64 %49 to i16
  %50 = udiv i16 %.lhs.trunc, 1000
  %.zext = zext nneg i16 %50 to i32
  %51 = urem i16 %.lhs.trunc, 1000
  %.zext56 = zext nneg i16 %51 to i32
  %52 = load i32, ptr %8, align 4
  %53 = urem i32 %52, 100000
  %54 = udiv i32 %53, 100
  %55 = urem i32 %52, 100
  %56 = mul nuw nsw i32 %55, 10
  %57 = load i8, ptr %10, align 1
  %58 = zext i8 %57 to i32
  %59 = add nuw nsw i32 %56, %58
  call void (ptr, ptr, ...) @proto_item_append_text(ptr noundef %13, ptr noundef nonnull @.str.136, i32 noundef %.zext, i32 noundef %.zext56, i32 noundef %54, i32 noundef %59)
  br label %60

60:                                               ; preds = %48, %7
  %61 = call fastcc i32 @dissect_PNPTCP_blocks(ptr noundef %0, i32 noundef %30, ptr noundef %1, ptr noundef %2, i16 noundef zeroext %4)
  call void @llvm.lifetime.end.p0(i64 4, ptr nonnull %11) #3
  call void @llvm.lifetime.end.p0(i64 1, ptr nonnull %10) #3
  call void @llvm.lifetime.end.p0(i64 2, ptr nonnull %9) #3
  call void @llvm.lifetime.end.p0(i64 4, ptr nonnull %8) #3
  ret i32 %61
}